target datalayout = "e-m:e-p270:32:32-p271:32:32-p272:64:64-i64:64-i128:128-f80:128-n8:16:32:64-S128"
target triple = "x86_64-pc-linux-gnu"

%"class.GenericWaitBarrier::Cell" = type <{ [128 x i8], %class.Semaphore, i64, i32, [4 x i8] }>
%class.Semaphore = type { %class.PosixSemaphore }
%class.PosixSemaphore = type { %union.sem_t }
%union.sem_t = type { i64, [24 x i8] }
%class.SpinYield = type <{ %class.TimeInterval, i32, i32, i32, i32, i32, [4 x i8] }>
%class.TimeInterval = type { %class.CompositeCounterRepresentation }
%class.CompositeCounterRepresentation = type { %class.Representation }
%class.Representation = type { %class.PairRep }
%class.PairRep = type { i64, i64 }
%"struct.Atomic::LoadImpl.5" = type { i8 }
%"struct.Atomic::CmpxchgImpl" = type { i8 }
%class.ScopedFence.2 = type { ptr }
%"struct.Atomic::PlatformOrderedLoad.6" = type { i8 }
%"struct.Atomic::LoadImpl.7" = type { i8 }
%"struct.Atomic::PlatformLoad.8" = type { i8 }
%"struct.Atomic::PlatformCmpxchg" = type { i8 }

@g_assert_poison = external global ptr, align 8
@.str = private unnamed_addr constant [52 x i8] c"src/hotspot/share/utilities/waitBarrier_generic.cpp\00", align 1
@.str.4 = private unnamed_addr constant [50 x i8] c"Cannot arm the wait barrier. Tag: %d; Waiters: %d\00", align 1

; Function Attrs: mustprogress nounwind uwtable
define internal void @_ZL16compiler_barrierv() #1 {
  call void asm sideeffect "", "~{memory},~{dirflag},~{fpsr},~{flags}"() #5, !srcloc !14
  ret void
}

; Function Attrs: mustprogress nounwind uwtable
define linkonce_odr hidden void @_ZN11OrderAccess7acquireEv() #1 comdat align 2 {
  call void @_ZL16compiler_barrierv()
  ret void
}

; Function Attrs: mustprogress nounwind uwtable
define linkonce_odr hidden void @_ZN18ScopedFenceGeneralIL15ScopedFenceType0EE7postfixEv(ptr noundef nonnull align 1 dereferenceable(1) %0) #1 comdat align 2 {
  %2 = alloca ptr, align 8
  store ptr %0, ptr %2, align 8
  call void @_ZN11OrderAccess7acquireEv()
  ret void
}

; Function Attrs: mustprogress nounwind uwtable
define linkonce_odr hidden noundef i64 @_ZNK6Atomic12PlatformLoadILm8EEclIlEET_PVKS3_(ptr noundef nonnull align 1 dereferenceable(1) %0, ptr noundef %1) #1 comdat align 2 {
  %3 = alloca ptr, align 8
  %4 = alloca ptr, align 8
  store ptr %0, ptr %3, align 8
  store ptr %1, ptr %4, align 8
  %5 = load ptr, ptr %4, align 8
  %6 = load volatile i64, ptr %5, align 8
  ret i64 %6
}

; Function Attrs: mustprogress nounwind uwtable
define linkonce_odr hidden void @_ZN18ScopedFenceGeneralIL15ScopedFenceType0EE6prefixEv(ptr noundef nonnull align 1 dereferenceable(1) %0) #1 comdat align 2 {
  %2 = alloca ptr, align 8
  store ptr %0, ptr %2, align 8
  ret void
}

; Function Attrs: mustprogress nounwind uwtable
define linkonce_odr hidden void @_ZN11ScopedFenceIL15ScopedFenceType0EE7postfixEv(ptr noundef nonnull align 8 dereferenceable(8) %0) #1 comdat align 2 {
  %2 = alloca ptr, align 8
  store ptr %0, ptr %2, align 8
  %3 = load ptr, ptr %2, align 8
  call void @_ZN18ScopedFenceGeneralIL15ScopedFenceType0EE7postfixEv(ptr noundef nonnull align 1 dereferenceable(1) %3)
  ret void
}

; Function Attrs: mustprogress nounwind uwtable
define linkonce_odr hidden noundef i64 @_ZNK6Atomic8LoadImplIlNS_12PlatformLoadILm8EEEvEclEPVKl(ptr noundef nonnull align 1 dereferenceable(1) %0, ptr noundef %1) #1 comdat align 2 {
  %3 = alloca ptr, align 8
  %4 = alloca ptr, align 8
  %5 = alloca %"struct.Atomic::PlatformLoad.8", align 1
  store ptr %0, ptr %3, align 8
  store ptr %1, ptr %4, align 8
  %6 = load ptr, ptr %4, align 8
  %7 = call noundef i64 @_ZNK6Atomic12PlatformLoadILm8EEclIlEET_PVKS3_(ptr noundef nonnull align 1 dereferenceable(1) %5, ptr noundef %6)
  ret i64 %7
}

; Function Attrs: mustprogress nounwind uwtable
define linkonce_odr hidden void @_ZN11ScopedFenceIL15ScopedFenceType0EE6prefixEv(ptr noundef nonnull align 8 dereferenceable(8) %0) #1 comdat align 2 {
  %2 = alloca ptr, align 8
  store ptr %0, ptr %2, align 8
  %3 = load ptr, ptr %2, align 8
  call void @_ZN18ScopedFenceGeneralIL15ScopedFenceType0EE6prefixEv(ptr noundef nonnull align 1 dereferenceable(1) %3)
  ret void
}

; Function Attrs: mustprogress nounwind uwtable
define linkonce_odr hidden void @_ZN11ScopedFenceIL15ScopedFenceType0EED2Ev(ptr noundef nonnull align 8 dereferenceable(8) %0) unnamed_addr #1 comdat align 2 {
  %2 = alloca ptr, align 8
  store ptr %0, ptr %2, align 8
  %3 = load ptr, ptr %2, align 8
  call void @_ZN11ScopedFenceIL15ScopedFenceType0EE7postfixEv(ptr noundef nonnull align 8 dereferenceable(8) %3)
  ret void
}

; Function Attrs: mustprogress nounwind uwtable
define linkonce_odr hidden noundef i64 @_ZN6Atomic4loadIlEET_PVKS1_(ptr noundef %0) #1 comdat align 2 {
  %2 = alloca ptr, align 8
  %3 = alloca %"struct.Atomic::LoadImpl.7", align 1
  store ptr %0, ptr %2, align 8
  %4 = load ptr, ptr %2, align 8
  %5 = call noundef i64 @_ZNK6Atomic8LoadImplIlNS_12PlatformLoadILm8EEEvEclEPVKl(ptr noundef nonnull align 1 dereferenceable(1) %3, ptr noundef %4)
  ret i64 %5
}

; Function Attrs: mustprogress nounwind uwtable
define linkonce_odr hidden void @_ZN11ScopedFenceIL15ScopedFenceType0EEC2EPv(ptr noundef nonnull align 8 dereferenceable(8) %0, ptr noundef %1) unnamed_addr #1 comdat align 2 {
  %3 = alloca ptr, align 8
  %4 = alloca ptr, align 8
  store ptr %0, ptr %3, align 8
  store ptr %1, ptr %4, align 8
  %5 = load ptr, ptr %3, align 8
  %6 = getelementptr inbounds %class.ScopedFence.2, ptr %5, i32 0, i32 0
  %7 = load ptr, ptr %4, align 8
  store ptr %7, ptr %6, align 8
  call void @_ZN11ScopedFenceIL15ScopedFenceType0EE6prefixEv(ptr noundef nonnull align 8 dereferenceable(8) %5)
  ret void
}

; Function Attrs: mustprogress nounwind uwtable
define linkonce_odr hidden noundef i64 @_ZNK6Atomic15PlatformCmpxchgILm8EEclIlEET_PVS3_S3_S3_19atomic_memory_order(ptr noundef nonnull align 1 dereferenceable(1) %0, ptr noundef %1, i64 noundef %2, i64 noundef %3, i32 noundef %4) #1 comdat align 2 {
  %6 = alloca ptr, align 8
  %7 = alloca ptr, align 8
  %8 = alloca i64, align 8
  %9 = alloca i64, align 8
  %10 = alloca i32, align 4
  store ptr %0, ptr %6, align 8
  store ptr %1, ptr %7, align 8
  store i64 %2, ptr %8, align 8
  store i64 %3, ptr %9, align 8
  store i32 %4, ptr %10, align 4
  %11 = load i64, ptr %9, align 8
  %12 = load i64, ptr %8, align 8
  %13 = load ptr, ptr %7, align 8
  %14 = call i64 asm sideeffect "lock cmpxchgq $1,($3)", "={ax},r,{ax},r,~{cc},~{memory},~{dirflag},~{fpsr},~{flags}"(i64 %11, i64 %12, ptr %13) #5, !srcloc !15
  store i64 %14, ptr %9, align 8
  %15 = load i64, ptr %9, align 8
  ret i64 %15
}

; Function Attrs: mustprogress nounwind uwtable
define linkonce_odr hidden noundef i64 @_ZNK6Atomic19PlatformOrderedLoadILm8EL15ScopedFenceType0EEclIlEET_PVKS4_(ptr noundef nonnull align 1 dereferenceable(1) %0, ptr noundef %1) #1 comdat align 2 {
  %3 = alloca ptr, align 8
  %4 = alloca ptr, align 8
  %5 = alloca %class.ScopedFence.2, align 8
  store ptr %0, ptr %3, align 8
  store ptr %1, ptr %4, align 8
  %6 = load ptr, ptr %4, align 8
  call void @_ZN11ScopedFenceIL15ScopedFenceType0EEC2EPv(ptr noundef nonnull align 8 dereferenceable(8) %5, ptr noundef %6)
  %7 = load ptr, ptr %4, align 8
  %8 = call noundef i64 @_ZN6Atomic4loadIlEET_PVKS1_(ptr noundef %7)
  call void @_ZN11ScopedFenceIL15ScopedFenceType0EED2Ev(ptr noundef nonnull align 8 dereferenceable(8) %5) #5
  ret i64 %8
}

; Function Attrs: mustprogress nounwind uwtable
define linkonce_odr hidden noundef i64 @_ZNK6Atomic11CmpxchgImplIlllvEclEPVlll19atomic_memory_order(ptr noundef nonnull align 1 dereferenceable(1) %0, ptr noundef %1, i64 noundef %2, i64 noundef %3, i32 noundef %4) #1 comdat align 2 {
  %6 = alloca ptr, align 8
  %7 = alloca ptr, align 8
  %8 = alloca i64, align 8
  %9 = alloca i64, align 8
  %10 = alloca i32, align 4
  %11 = alloca %"struct.Atomic::PlatformCmpxchg", align 1
  store ptr %0, ptr %6, align 8
  store ptr %1, ptr %7, align 8
  store i64 %2, ptr %8, align 8
  store i64 %3, ptr %9, align 8
  store i32 %4, ptr %10, align 4
  %12 = load ptr, ptr %7, align 8
  %13 = load i64, ptr %8, align 8
  %14 = load i64, ptr %9, align 8
  %15 = load i32, ptr %10, align 4
  %16 = call noundef i64 @_ZNK6Atomic15PlatformCmpxchgILm8EEclIlEET_PVS3_S3_S3_19atomic_memory_order(ptr noundef nonnull align 1 dereferenceable(1) %11, ptr noundef %12, i64 noundef %13, i64 noundef %14, i32 noundef %15)
  ret i64 %16
}

; Function Attrs: mustprogress nounwind uwtable
define linkonce_odr hidden noundef i64 @_ZNK6Atomic8LoadImplIlNS_19PlatformOrderedLoadILm8EL15ScopedFenceType0EEEvEclEPVKl(ptr noundef nonnull align 1 dereferenceable(1) %0, ptr noundef %1) #1 comdat align 2 {
  %3 = alloca ptr, align 8
  %4 = alloca ptr, align 8
  %5 = alloca %"struct.Atomic::PlatformOrderedLoad.6", align 1
  store ptr %0, ptr %3, align 8
  store ptr %1, ptr %4, align 8
  %6 = load ptr, ptr %4, align 8
  %7 = call noundef i64 @_ZNK6Atomic19PlatformOrderedLoadILm8EL15ScopedFenceType0EEclIlEET_PVKS4_(ptr noundef nonnull align 1 dereferenceable(1) %5, ptr noundef %6)
  ret i64 %7
}

; Function Attrs: mustprogress nounwind uwtable
define linkonce_odr hidden noundef i32 @_ZN18GenericWaitBarrier4Cell10decode_tagEl(i64 noundef %0) #1 comdat align 2 {
  %2 = alloca i64, align 8
  store i64 %0, ptr %2, align 8
  %3 = load i64, ptr %2, align 8
  %4 = ashr i64 %3, 32
  %5 = trunc i64 %4 to i32
  ret i32 %5
}

; Function Attrs: mustprogress nounwind uwtable
define linkonce_odr hidden noundef i64 @_ZN6Atomic7cmpxchgIlllEET_PVS1_T0_T1_19atomic_memory_order(ptr noundef %0, i64 noundef %1, i64 noundef %2, i32 noundef %3) #1 comdat align 2 {
  %5 = alloca ptr, align 8
  %6 = alloca i64, align 8
  %7 = alloca i64, align 8
  %8 = alloca i32, align 4
  %9 = alloca %"struct.Atomic::CmpxchgImpl", align 1
  store ptr %0, ptr %5, align 8
  store i64 %1, ptr %6, align 8
  store i64 %2, ptr %7, align 8
  store i32 %3, ptr %8, align 4
  %10 = load ptr, ptr %5, align 8
  %11 = load i64, ptr %6, align 8
  %12 = load i64, ptr %7, align 8
  %13 = load i32, ptr %8, align 4
  %14 = call noundef i64 @_ZNK6Atomic11CmpxchgImplIlllvEclEPVlll19atomic_memory_order(ptr noundef nonnull align 1 dereferenceable(1) %9, ptr noundef %10, i64 noundef %11, i64 noundef %12, i32 noundef %13)
  ret i64 %14
}

; Function Attrs: mustprogress nounwind uwtable
define linkonce_odr hidden noundef i64 @_ZN18GenericWaitBarrier4Cell6encodeEii(i32 noundef %0, i32 noundef %1) #1 comdat align 2 {
  %3 = alloca i32, align 4
  %4 = alloca i32, align 4
  %5 = alloca i64, align 8
  store i32 %0, ptr %3, align 4
  store i32 %1, ptr %4, align 4
  %6 = load i32, ptr %3, align 4
  %7 = sext i32 %6 to i64
  %8 = shl i64 %7, 32
  %9 = load i32, ptr %4, align 4
  %10 = sext i32 %9 to i64
  %11 = and i64 %10, 4294967295
  %12 = or i64 %8, %11
  store i64 %12, ptr %5, align 8
  %13 = load i64, ptr %5, align 8
  ret i64 %13
}

; Function Attrs: mustprogress nounwind uwtable
define linkonce_odr hidden void @_ZN9SpinYield4waitEv(ptr noundef nonnull align 8 dereferenceable(36) %0) #1 comdat align 2 {
  %2 = alloca ptr, align 8
  store ptr %0, ptr %2, align 8
  %3 = load ptr, ptr %2, align 8
  %4 = getelementptr inbounds %class.SpinYield, ptr %3, i32 0, i32 1
  %5 = load i32, ptr %4, align 8
  %6 = getelementptr inbounds %class.SpinYield, ptr %3, i32 0, i32 3
  %7 = load i32, ptr %6, align 8
  %8 = icmp ult i32 %5, %7
  br i1 %8, label %9, label %14

9:                                                ; preds = %1
  %10 = getelementptr inbounds %class.SpinYield, ptr %3, i32 0, i32 1
  %11 = load i32, ptr %10, align 8
  %12 = add i32 %11, 1
  store i32 %12, ptr %10, align 8
  %13 = call i32 @SpinPause()
  br label %15

14:                                               ; preds = %1
  call void @_ZN9SpinYield14yield_or_sleepEv(ptr noundef nonnull align 8 dereferenceable(36) %3)
  br label %15

15:                                               ; preds = %14, %9
  ret void
}

; Function Attrs: mustprogress nounwind uwtable
define linkonce_odr hidden noundef i32 @_ZN18GenericWaitBarrier4Cell14decode_waitersEl(i64 noundef %0) #1 comdat align 2 {
  %2 = alloca i64, align 8
  store i64 %0, ptr %2, align 8
  %3 = load i64, ptr %2, align 8
  %4 = and i64 %3, 4294967295
  %5 = trunc i64 %4 to i32
  ret i32 %5
}

; Function Attrs: mustprogress nounwind uwtable
define linkonce_odr hidden noundef i64 @_ZN6Atomic12load_acquireIlEET_PVKS1_(ptr noundef %0) #1 comdat align 2 {
  %2 = alloca ptr, align 8
  %3 = alloca %"struct.Atomic::LoadImpl.5", align 1
  store ptr %0, ptr %2, align 8
  %4 = load ptr, ptr %2, align 8
  %5 = call noundef i64 @_ZNK6Atomic8LoadImplIlNS_19PlatformOrderedLoadILm8EL15ScopedFenceType0EEEvEclEPVKl(ptr noundef nonnull align 1 dereferenceable(1) %3, ptr noundef %4)
  ret i64 %5
}

; Function Attrs: mustprogress nounwind uwtable
define hidden void @_ZN18GenericWaitBarrier4Cell3armEi(ptr noundef nonnull align 8 dereferenceable(172) %0, i32 noundef %1) #1 align 2 {
  %3 = alloca ptr, align 8
  %4 = alloca i32, align 4
  %5 = alloca i64, align 8
  %6 = alloca %class.SpinYield, align 8
  %7 = alloca i64, align 8
  %8 = alloca i64, align 8
  store ptr %0, ptr %3, align 8
  store i32 %1, ptr %4, align 4
  %9 = load ptr, ptr %3, align 8
  call void @_ZN9SpinYieldC1Ejjj(ptr noundef nonnull align 8 dereferenceable(36) %6, i32 noundef 4096, i32 noundef 64, i32 noundef 1000)
  br label %10

10:                                               ; preds = %17, %2
  %11 = getelementptr inbounds %"class.GenericWaitBarrier::Cell", ptr %9, i32 0, i32 2
  %12 = call noundef i64 @_ZN6Atomic12load_acquireIlEET_PVKS1_(ptr noundef %11)
  store i64 %12, ptr %5, align 8
  %13 = load i64, ptr %5, align 8
  %14 = call noundef i32 @_ZN18GenericWaitBarrier4Cell14decode_waitersEl(i64 noundef %13)
  %15 = icmp eq i32 %14, 0
  br i1 %15, label %16, label %17

16:                                               ; preds = %10
  br label %18

17:                                               ; preds = %10
  call void @_ZN9SpinYield4waitEv(ptr noundef nonnull align 8 dereferenceable(36) %6)
  br label %10, !llvm.loop !6

18:                                               ; preds = %16
  %19 = load i32, ptr %4, align 4
  %20 = call noundef i64 @_ZN18GenericWaitBarrier4Cell6encodeEii(i32 noundef %19, i32 noundef 0)
  store i64 %20, ptr %7, align 8
  %21 = getelementptr inbounds %"class.GenericWaitBarrier::Cell", ptr %9, i32 0, i32 2
  %22 = load i64, ptr %5, align 8
  %23 = load i64, ptr %7, align 8
  %24 = call noundef i64 @_ZN6Atomic7cmpxchgIlllEET_PVS1_T0_T1_19atomic_memory_order(ptr noundef %21, i64 noundef %22, i64 noundef %23, i32 noundef 8)
  store i64 %24, ptr %8, align 8
  %25 = load i64, ptr %8, align 8
  %26 = load i64, ptr %5, align 8
  %27 = icmp ne i64 %25, %26
  br i1 %27, label %28, label %36

28:                                               ; preds = %18
  br label %29

29:                                               ; preds = %28
  %30 = load ptr, ptr @g_assert_poison, align 8
  store i8 88, ptr %30, align 1
  %31 = load i64, ptr %8, align 8
  %32 = call noundef i32 @_ZN18GenericWaitBarrier4Cell10decode_tagEl(i64 noundef %31)
  %33 = load i64, ptr %8, align 8
  %34 = call noundef i32 @_ZN18GenericWaitBarrier4Cell14decode_waitersEl(i64 noundef %33)
  call void (i32, ptr, i32, ptr, ...) @_Z12report_fatal11VMErrorTypePKciS1_z(i32 noundef -536870912, ptr noundef @.str, i32 noundef 142, ptr noundef @.str.4, i32 noundef %32, i32 noundef %34) #4
  unreachable

35:                                               ; No predecessors!
  br label %36

36:                                               ; preds = %35, %18
  ret void
}