; Function Attrs: mustprogress nounwind uwtable
define hidden void @_ZN18GenericWaitBarrier4Cell3armEi(ptr noundef nonnull align 8 dereferenceable(172) %0, i32 noundef %1) local_unnamed_addr #0 align 2 {
  %3 = alloca %class.SpinYield, align 8
  call void @_ZN9SpinYieldC1Ejjj(ptr noundef nonnull align 8 dereferenceable(36) %3, i32 noundef 4096, i32 noundef 64, i32 noundef 1000) #4
  %4 = getelementptr inbounds i8, ptr %0, i64 160
  %5 = load volatile i64, ptr %4, align 8
  call void asm sideeffect "", "~{memory},~{dirflag},~{fpsr},~{flags}"() #4, !srcloc !6
  %6 = and i64 %5, 4294967295
  %7 = icmp eq i64 %6, 0
  br i1 %7, label %._crit_edge, label %.lr.ph

.lr.ph:                                           ; preds = %2
  %8 = getelementptr inbounds i8, ptr %3, i64 16
  %9 = getelementptr inbounds i8, ptr %3, i64 24
  br label %10

10:                                               ; preds = %.lr.ph, %_ZN9SpinYield4waitEv.exit
  %11 = load i32, ptr %8, align 8
  %12 = load i32, ptr %9, align 8
  %13 = icmp ult i32 %11, %12
  br i1 %13, label %14, label %17

14:                                               ; preds = %10
  %15 = add nuw i32 %11, 1
  store i32 %15, ptr %8, align 8
  %16 = call i32 @SpinPause() #4
  br label %_ZN9SpinYield4waitEv.exit

17:                                               ; preds = %10
  call void @_ZN9SpinYield14yield_or_sleepEv(ptr noundef nonnull align 8 dereferenceable(36) %3) #4
  br label %_ZN9SpinYield4waitEv.exit

_ZN9SpinYield4waitEv.exit:                        ; preds = %14, %17
  %18 = load volatile i64, ptr %4, align 8
  call void asm sideeffect "", "~{memory},~{dirflag},~{fpsr},~{flags}"() #4, !srcloc !6
  %19 = and i64 %18, 4294967295
  %20 = icmp eq i64 %19, 0
  br i1 %20, label %._crit_edge, label %10, !llvm.loop !8

._crit_edge:                                      ; preds = %_ZN9SpinYield4waitEv.exit, %2
  %.lcssa = phi i64 [ %5, %2 ], [ %18, %_ZN9SpinYield4waitEv.exit ]
  %21 = sext i32 %1 to i64
  %22 = shl nsw i64 %21, 32
  %23 = call noundef i64 asm sideeffect "lock cmpxchgq $1,($3)", "={ax},r,{ax},r,~{cc},~{memory},~{dirflag},~{fpsr},~{flags}"(i64 %22, i64 %.lcssa, ptr nonnull %4) #4, !srcloc !10
  %.not = icmp eq i64 %23, %.lcssa
  br i1 %.not, label %29, label %24

24:                                               ; preds = %._crit_edge
  %25 = load ptr, ptr @g_assert_poison, align 8
  store i8 88, ptr %25, align 1
  %26 = lshr i64 %23, 32
  %27 = trunc nuw i64 %26 to i32
  %28 = trunc i64 %23 to i32
  call void (i32, ptr, i32, ptr, ...) @_Z12report_fatal11VMErrorTypePKciS1_z(i32 noundef -536870912, ptr noundef nonnull @.str, i32 noundef 142, ptr noundef nonnull @.str.4, i32 noundef %27, i32 noundef %28) #5
  unreachable

29:                                               ; preds = %._crit_edge
  ret void
}